target datalayout = "e-m:e-p270:32:32-p271:32:32-p272:64:64-i64:64-i128:128-f80:128-n8:16:32:64-S128"
target triple = "x86_64-pc-linux-gnu"

%struct.evp_cipher_ctx_st = type { ptr, ptr, i32, i32, [16 x i8], [16 x i8], [32 x i8], i32, ptr, i32, i32, i64, ptr, i32, i32, [32 x i8], i64, ptr, ptr }
%struct.EVP_AES_WRAP_CTX = type { %union.anon.6, ptr }
%union.anon.6 = type { double, [240 x i8] }

@.str = private unnamed_addr constant [30 x i8] c"../openssl/crypto/evp/e_aes.c\00", align 1
@__func__.aes_wrap_init_key = private unnamed_addr constant [18 x i8] c"aes_wrap_init_key\00", align 1

; Function Attrs: nounwind uwtable
define internal i32 @aes_wrap_init_key(ptr noundef %0, ptr noundef %1, ptr noundef %2, i32 noundef %3) #0 {
  %5 = alloca i32, align 4
  %6 = alloca ptr, align 8
  %7 = alloca ptr, align 8
  %8 = alloca ptr, align 8
  %9 = alloca i32, align 4
  %10 = alloca i32, align 4
  %11 = alloca ptr, align 8
  %12 = alloca i32, align 4
  %13 = alloca i32, align 4
  store ptr %0, ptr %6, align 8, !tbaa !7
  store ptr %1, ptr %7, align 8, !tbaa !10
  store ptr %2, ptr %8, align 8, !tbaa !10
  store i32 %3, ptr %9, align 4, !tbaa !3
  call void @llvm.lifetime.start.p0(i64 4, ptr %10) #4
  call void @llvm.lifetime.start.p0(i64 8, ptr %11) #4
  %14 = load ptr, ptr %6, align 8, !tbaa !7
  %15 = call ptr @EVP_CIPHER_CTX_get_cipher_data(ptr noundef %14)
  store ptr %15, ptr %11, align 8, !tbaa !12
  %16 = load ptr, ptr %8, align 8, !tbaa !10
  %17 = icmp eq ptr %16, null
  br i1 %17, label %18, label %22

18:                                               ; preds = %4
  %19 = load ptr, ptr %7, align 8, !tbaa !10
  %20 = icmp eq ptr %19, null
  br i1 %20, label %21, label %22

21:                                               ; preds = %18
  store i32 1, ptr %5, align 4
  store i32 1, ptr %12, align 4
  br label %79

22:                                               ; preds = %18, %4
  %23 = load ptr, ptr %7, align 8, !tbaa !10
  %24 = icmp ne ptr %23, null
  br i1 %24, label %25, label %58

25:                                               ; preds = %22
  call void @llvm.lifetime.start.p0(i64 4, ptr %13) #4
  %26 = load ptr, ptr %6, align 8, !tbaa !7
  %27 = call i32 @EVP_CIPHER_CTX_get_key_length(ptr noundef %26)
  %28 = mul nsw i32 %27, 8
  store i32 %28, ptr %13, align 4, !tbaa !3
  %29 = load i32, ptr %13, align 4, !tbaa !3
  %30 = icmp sle i32 %29, 0
  br i1 %30, label %31, label %32

31:                                               ; preds = %25
  call void @ERR_new()
  call void @ERR_set_debug(ptr noundef @.str, i32 noundef 3680, ptr noundef @__func__.aes_wrap_init_key)
  call void (i32, i32, ptr, ...) @ERR_set_error(i32 noundef 6, i32 noundef 130, ptr noundef null)
  store i32 0, ptr %5, align 4
  store i32 1, ptr %12, align 4
  br label %55

32:                                               ; preds = %25
  %33 = load ptr, ptr %6, align 8, !tbaa !7
  %34 = call i32 @EVP_CIPHER_CTX_is_encrypting(ptr noundef %33)
  %35 = icmp ne i32 %34, 0
  br i1 %35, label %36, label %42

36:                                               ; preds = %32
  %37 = load ptr, ptr %7, align 8, !tbaa !10
  %38 = load i32, ptr %13, align 4, !tbaa !3
  %39 = load ptr, ptr %11, align 8, !tbaa !12
  %40 = getelementptr inbounds nuw %struct.EVP_AES_WRAP_CTX, ptr %39, i32 0, i32 0
  %41 = call i32 @AES_set_encrypt_key(ptr noundef %37, i32 noundef %38, ptr noundef %40)
  br label %48

42:                                               ; preds = %32
  %43 = load ptr, ptr %7, align 8, !tbaa !10
  %44 = load i32, ptr %13, align 4, !tbaa !3
  %45 = load ptr, ptr %11, align 8, !tbaa !12
  %46 = getelementptr inbounds nuw %struct.EVP_AES_WRAP_CTX, ptr %45, i32 0, i32 0
  %47 = call i32 @AES_set_decrypt_key(ptr noundef %43, i32 noundef %44, ptr noundef %46)
  br label %48

48:                                               ; preds = %42, %36
  %49 = load ptr, ptr %8, align 8, !tbaa !10
  %50 = icmp eq ptr %49, null
  br i1 %50, label %51, label %54

51:                                               ; preds = %48
  %52 = load ptr, ptr %11, align 8, !tbaa !12
  %53 = getelementptr inbounds nuw %struct.EVP_AES_WRAP_CTX, ptr %52, i32 0, i32 1
  store ptr null, ptr %53, align 8, !tbaa !65
  br label %54

54:                                               ; preds = %51, %48
  store i32 0, ptr %12, align 4
  br label %55

55:                                               ; preds = %54, %31
  call void @llvm.lifetime.end.p0(i64 4, ptr %13) #4
  %56 = load i32, ptr %12, align 4
  switch i32 %56, label %79 [
    i32 0, label %57
  ]

57:                                               ; preds = %55
  br label %58

58:                                               ; preds = %57, %22
  %59 = load ptr, ptr %8, align 8, !tbaa !10
  %60 = icmp ne ptr %59, null
  br i1 %60, label %61, label %78

61:                                               ; preds = %58
  %62 = load ptr, ptr %6, align 8, !tbaa !7
  %63 = call i32 @EVP_CIPHER_CTX_get_iv_length(ptr noundef %62)
  store i32 %63, ptr %10, align 4, !tbaa !3
  %64 = icmp slt i32 %63, 0
  br i1 %64, label %65, label %66

65:                                               ; preds = %61
  store i32 0, ptr %5, align 4
  store i32 1, ptr %12, align 4
  br label %79

66:                                               ; preds = %61
  %67 = load ptr, ptr %6, align 8, !tbaa !7
  %68 = getelementptr inbounds nuw %struct.evp_cipher_ctx_st, ptr %67, i32 0, i32 5
  %69 = getelementptr inbounds [16 x i8], ptr %68, i64 0, i64 0
  %70 = load ptr, ptr %8, align 8, !tbaa !10
  %71 = load i32, ptr %10, align 4, !tbaa !3
  %72 = sext i32 %71 to i64
  call void @llvm.memcpy.p0.p0.i64(ptr align 8 %69, ptr align 1 %70, i64 %72, i1 false)
  %73 = load ptr, ptr %6, align 8, !tbaa !7
  %74 = getelementptr inbounds nuw %struct.evp_cipher_ctx_st, ptr %73, i32 0, i32 5
  %75 = getelementptr inbounds [16 x i8], ptr %74, i64 0, i64 0
  %76 = load ptr, ptr %11, align 8, !tbaa !12
  %77 = getelementptr inbounds nuw %struct.EVP_AES_WRAP_CTX, ptr %76, i32 0, i32 1
  store ptr %75, ptr %77, align 8, !tbaa !65
  br label %78

78:                                               ; preds = %66, %58
  store i32 1, ptr %5, align 4
  store i32 1, ptr %12, align 4
  br label %79

79:                                               ; preds = %78, %65, %55, %21
  call void @llvm.lifetime.end.p0(i64 8, ptr %11) #4
  call void @llvm.lifetime.end.p0(i64 4, ptr %10) #4
  %80 = load i32, ptr %5, align 4
  ret i32 %80
}