; Function Attrs: nounwind uwtable
define internal range(i32 0, 2) i32 @aes_wrap_init_key(ptr noundef %0, ptr noundef %1, ptr noundef readonly captures(address_is_null) %2, i32 %3) #2 {
  %5 = tail call ptr @EVP_CIPHER_CTX_get_cipher_data(ptr noundef %0) #8
  %6 = icmp eq ptr %2, null
  %7 = icmp eq ptr %1, null
  %or.cond = and i1 %7, %6
  br i1 %or.cond, label %28, label %8

8:                                                ; preds = %4
  br i1 %7, label %.thread, label %9

9:                                                ; preds = %8
  %10 = tail call i32 @EVP_CIPHER_CTX_get_key_length(ptr noundef %0) #8
  %11 = shl nsw i32 %10, 3
  %12 = icmp sgt i32 %10, 0
  br i1 %12, label %13, label %21

13:                                               ; preds = %9
  %14 = tail call i32 @EVP_CIPHER_CTX_is_encrypting(ptr noundef %0) #8
  %.not29 = icmp eq i32 %14, 0
  br i1 %.not29, label %17, label %15

15:                                               ; preds = %13
  %16 = tail call i32 @AES_set_encrypt_key(ptr noundef nonnull %1, i32 noundef %11, ptr noundef %5) #8
  br label %19

17:                                               ; preds = %13
  %18 = tail call i32 @AES_set_decrypt_key(ptr noundef nonnull %1, i32 noundef %11, ptr noundef %5) #8
  br label %19

19:                                               ; preds = %17, %15
  br i1 %6, label %.thread.thread, label %.thread.thread31

.thread.thread:                                   ; preds = %19
  %20 = getelementptr inbounds nuw i8, ptr %5, i64 248
  store ptr null, ptr %20, align 8, !tbaa !56
  br label %28

21:                                               ; preds = %9
  tail call void @ERR_new() #8
  tail call void @ERR_set_debug(ptr noundef nonnull @.str, i32 noundef 3680, ptr noundef nonnull @__func__.aes_wrap_init_key) #8
  tail call void (i32, i32, ptr, ...) @ERR_set_error(i32 noundef 6, i32 noundef 130, ptr noundef null) #8
  br label %28

.thread:                                          ; preds = %8
  br i1 %6, label %28, label %.thread.thread31

.thread.thread31:                                 ; preds = %19, %.thread
  %22 = tail call i32 @EVP_CIPHER_CTX_get_iv_length(ptr noundef %0) #8
  %23 = icmp slt i32 %22, 0
  br i1 %23, label %28, label %24

24:                                               ; preds = %.thread.thread31
  %25 = getelementptr inbounds nuw i8, ptr %0, i64 40
  %26 = zext nneg i32 %22 to i64
  tail call void @llvm.memcpy.p0.p0.i64(ptr nonnull align 8 %25, ptr nonnull align 1 %2, i64 %26, i1 false)
  %27 = getelementptr inbounds nuw i8, ptr %5, i64 248
  store ptr %25, ptr %27, align 8, !tbaa !56
  br label %28

28:                                               ; preds = %.thread.thread, %21, %.thread, %24, %.thread.thread31, %4
  %.0 = phi i32 [ 0, %21 ], [ 1, %4 ], [ 0, %.thread.thread31 ], [ 1, %24 ], [ 1, %.thread ], [ 1, %.thread.thread ]
  ret i32 %.0
}